target datalayout = "e-m:e-p270:32:32-p271:32:32-p272:64:64-i64:64-i128:128-f80:128-n8:16:32:64-S128"
target triple = "x86_64-pc-linux-gnu"

%struct.SockAddr = type { %struct.sockaddr_storage, i32 }
%struct.sockaddr_storage = type { i16, [118 x i8], i64 }
%struct.Port = type { i32, i8, i32, %struct.SockAddr, %struct.SockAddr, ptr, ptr, i32, i32, ptr, ptr, ptr, ptr, ptr, ptr, ptr, i32, i32, i32, i32, i32, i32, i32, i32, [32 x i8], [32 x i8], i8, ptr, i8, ptr, ptr, i8, i8, i8, ptr, ptr, ptr, i64, i64 }

@.str.2 = private unnamed_addr constant [9 x i8] c"pqcomm.c\00", align 1
@.str.3 = private unnamed_addr constant [18 x i8] c"%s(%s) failed: %m\00", align 1
@.str.4 = private unnamed_addr constant [11 x i8] c"setsockopt\00", align 1
@.str.35 = private unnamed_addr constant [11 x i8] c"getsockopt\00", align 1
@.str.39 = private unnamed_addr constant [17 x i8] c"TCP_USER_TIMEOUT\00", align 1
@__func__.pq_gettcpusertimeout = private unnamed_addr constant [21 x i8] c"pq_gettcpusertimeout\00", align 1
@__func__.pq_settcpusertimeout = private unnamed_addr constant [21 x i8] c"pq_settcpusertimeout\00", align 1

; Function Attrs: nounwind uwtable
define dso_local i32 @pq_gettcpusertimeout(ptr noundef %0) #0 {
  %2 = alloca i32, align 4
  %3 = alloca ptr, align 8
  %4 = alloca i32, align 4
  store ptr %0, ptr %3, align 8
  %5 = load ptr, ptr %3, align 8
  %6 = icmp eq ptr %5, null
  br i1 %6, label %15, label %7

7:                                                ; preds = %1
  %8 = load ptr, ptr %3, align 8
  %9 = getelementptr inbounds nuw %struct.Port, ptr %8, i32 0, i32 3
  %10 = getelementptr inbounds nuw %struct.SockAddr, ptr %9, i32 0, i32 0
  %11 = getelementptr inbounds nuw %struct.sockaddr_storage, ptr %10, i32 0, i32 0
  %12 = load i16, ptr %11, align 8
  %13 = zext i16 %12 to i32
  %14 = icmp eq i32 %13, 1
  br i1 %14, label %15, label %16

15:                                               ; preds = %7, %1
  store i32 0, ptr %2, align 4
  br label %56

16:                                               ; preds = %7
  %17 = load ptr, ptr %3, align 8
  %18 = getelementptr inbounds nuw %struct.Port, ptr %17, i32 0, i32 23
  %19 = load i32, ptr %18, align 4
  %20 = icmp ne i32 %19, 0
  br i1 %20, label %21, label %25

21:                                               ; preds = %16
  %22 = load ptr, ptr %3, align 8
  %23 = getelementptr inbounds nuw %struct.Port, ptr %22, i32 0, i32 23
  %24 = load i32, ptr %23, align 4
  store i32 %24, ptr %2, align 4
  br label %56

25:                                               ; preds = %16
  %26 = load ptr, ptr %3, align 8
  %27 = getelementptr inbounds nuw %struct.Port, ptr %26, i32 0, i32 19
  %28 = load i32, ptr %27, align 4
  %29 = icmp eq i32 %28, 0
  br i1 %29, label %30, label %52

30:                                               ; preds = %25
  call void @llvm.lifetime.start.p0(i64 4, ptr %4) #14
  store i32 4, ptr %4, align 4
  %31 = load ptr, ptr %3, align 8
  %32 = getelementptr inbounds nuw %struct.Port, ptr %31, i32 0, i32 0
  %33 = load i32, ptr %32, align 8
  %34 = load ptr, ptr %3, align 8
  %35 = getelementptr inbounds nuw %struct.Port, ptr %34, i32 0, i32 19
  %36 = call i32 @getsockopt(i32 noundef %33, i32 noundef 6, i32 noundef 18, ptr noundef %35, ptr noundef %4) #14
  %37 = icmp slt i32 %36, 0
  br i1 %37, label %38, label %51

38:                                               ; preds = %30
  br label %39

39:                                               ; preds = %38
  br i1 false, label %40, label %42

40:                                               ; preds = %39
  %41 = call zeroext i1 @errstart_cold(i32 noundef 15, ptr noundef null) #15
  br i1 %41, label %44, label %46

42:                                               ; preds = %39
  %43 = call zeroext i1 @errstart(i32 noundef 15, ptr noundef null)
  br i1 %43, label %44, label %46

44:                                               ; preds = %42, %40
  %45 = call i32 (ptr, ...) @errmsg(ptr noundef @.str.3, ptr noundef @.str.35, ptr noundef @.str.39)
  call void @errfinish(ptr noundef @.str.2, i32 noundef 1892, ptr noundef @__func__.pq_gettcpusertimeout)
  br label %46

46:                                               ; preds = %44, %42, %40
  br label %47

47:                                               ; preds = %46
  br label %48

48:                                               ; preds = %47
  %49 = load ptr, ptr %3, align 8
  %50 = getelementptr inbounds nuw %struct.Port, ptr %49, i32 0, i32 19
  store i32 -1, ptr %50, align 4
  br label %51

51:                                               ; preds = %48, %30
  call void @llvm.lifetime.end.p0(i64 4, ptr %4) #14
  br label %52

52:                                               ; preds = %51, %25
  %53 = load ptr, ptr %3, align 8
  %54 = getelementptr inbounds nuw %struct.Port, ptr %53, i32 0, i32 19
  %55 = load i32, ptr %54, align 4
  store i32 %55, ptr %2, align 4
  br label %56

56:                                               ; preds = %52, %21, %15
  %57 = load i32, ptr %2, align 4
  ret i32 %57
}

; Function Attrs: nounwind uwtable
define dso_local i32 @pq_settcpusertimeout(i32 noundef %0, ptr noundef %1) #0 {
  %3 = alloca i32, align 4
  %4 = alloca i32, align 4
  %5 = alloca ptr, align 8
  store i32 %0, ptr %4, align 4
  store ptr %1, ptr %5, align 8
  %6 = load ptr, ptr %5, align 8
  %7 = icmp eq ptr %6, null
  br i1 %7, label %16, label %8

8:                                                ; preds = %2
  %9 = load ptr, ptr %5, align 8
  %10 = getelementptr inbounds nuw %struct.Port, ptr %9, i32 0, i32 3
  %11 = getelementptr inbounds nuw %struct.SockAddr, ptr %10, i32 0, i32 0
  %12 = getelementptr inbounds nuw %struct.sockaddr_storage, ptr %11, i32 0, i32 0
  %13 = load i16, ptr %12, align 8
  %14 = zext i16 %13 to i32
  %15 = icmp eq i32 %14, 1
  br i1 %15, label %16, label %17

16:                                               ; preds = %8, %2
  store i32 0, ptr %3, align 4
  br label %66

17:                                               ; preds = %8
  %18 = load i32, ptr %4, align 4
  %19 = load ptr, ptr %5, align 8
  %20 = getelementptr inbounds nuw %struct.Port, ptr %19, i32 0, i32 23
  %21 = load i32, ptr %20, align 4
  %22 = icmp eq i32 %18, %21
  br i1 %22, label %23, label %24

23:                                               ; preds = %17
  store i32 0, ptr %3, align 4
  br label %66

24:                                               ; preds = %17
  %25 = load ptr, ptr %5, align 8
  %26 = getelementptr inbounds nuw %struct.Port, ptr %25, i32 0, i32 19
  %27 = load i32, ptr %26, align 4
  %28 = icmp sle i32 %27, 0
  br i1 %28, label %29, label %39

29:                                               ; preds = %24
  %30 = load ptr, ptr %5, align 8
  %31 = call i32 @pq_gettcpusertimeout(ptr noundef %30)
  %32 = icmp slt i32 %31, 0
  br i1 %32, label %33, label %38

33:                                               ; preds = %29
  %34 = load i32, ptr %4, align 4
  %35 = icmp eq i32 %34, 0
  br i1 %35, label %36, label %37

36:                                               ; preds = %33
  store i32 0, ptr %3, align 4
  br label %66

37:                                               ; preds = %33
  store i32 -1, ptr %3, align 4
  br label %66

38:                                               ; preds = %29
  br label %39

39:                                               ; preds = %38, %24
  %40 = load i32, ptr %4, align 4
  %41 = icmp eq i32 %40, 0
  br i1 %41, label %42, label %46

42:                                               ; preds = %39
  %43 = load ptr, ptr %5, align 8
  %44 = getelementptr inbounds nuw %struct.Port, ptr %43, i32 0, i32 19
  %45 = load i32, ptr %44, align 4
  store i32 %45, ptr %4, align 4
  br label %46

46:                                               ; preds = %42, %39
  %47 = load ptr, ptr %5, align 8
  %48 = getelementptr inbounds nuw %struct.Port, ptr %47, i32 0, i32 0
  %49 = load i32, ptr %48, align 8
  %50 = call i32 @setsockopt(i32 noundef %49, i32 noundef 6, i32 noundef 18, ptr noundef %4, i32 noundef 4) #14
  %51 = icmp slt i32 %50, 0
  br i1 %51, label %52, label %62

52:                                               ; preds = %46
  br label %53

53:                                               ; preds = %52
  br i1 false, label %54, label %56

54:                                               ; preds = %53
  %55 = call zeroext i1 @errstart_cold(i32 noundef 15, ptr noundef null) #15
  br i1 %55, label %58, label %60

56:                                               ; preds = %53
  %57 = call zeroext i1 @errstart(i32 noundef 15, ptr noundef null)
  br i1 %57, label %58, label %60

58:                                               ; preds = %56, %54
  %59 = call i32 (ptr, ...) @errmsg(ptr noundef @.str.3, ptr noundef @.str.4, ptr noundef @.str.39)
  call void @errfinish(ptr noundef @.str.2, i32 noundef 1931, ptr noundef @__func__.pq_settcpusertimeout)
  br label %60

60:                                               ; preds = %58, %56, %54
  br label %61

61:                                               ; preds = %60
  store i32 -1, ptr %3, align 4
  br label %66

62:                                               ; preds = %46
  %63 = load i32, ptr %4, align 4
  %64 = load ptr, ptr %5, align 8
  %65 = getelementptr inbounds nuw %struct.Port, ptr %64, i32 0, i32 23
  store i32 %63, ptr %65, align 4
  store i32 0, ptr %3, align 4
  br label %66

66:                                               ; preds = %62, %61, %37, %36, %23, %16
  %67 = load i32, ptr %3, align 4
  ret i32 %67
}